; Function Attrs: mustprogress uwtable
define void @_ZN32pxrInternal_v0_24__pxrReserved__10PcpChanges32_DidChangeSublayerAndLayerStacksEPKNS_8PcpCacheERKSt6vectorINS_9TfWeakPtrINS_13PcpLayerStackEEESaIS7_EERKNSt7__cxx1112basic_stringIcSt11char_traitsIcESaIcEEERKNS5_INS_8SdfLayerEEENS0_19_SublayerChangeTypeEPSH_(ptr noundef nonnull align 8 dereferenceable(240) %0, ptr noundef %1, ptr nocapture noundef nonnull readonly align 8 dereferenceable(24) %2, ptr noundef nonnull align 8 dereferenceable(32) %3, ptr nocapture noundef nonnull readonly align 8 dereferenceable(16) %4, i32 noundef %5, ptr noundef %6) local_unnamed_addr #0 align 2 {
  %8 = alloca i8, align 1
  store i8 0, ptr %8, align 1
  call void @_ZN32pxrInternal_v0_24__pxrReserved__10PcpChanges18_DidChangeSublayerEPKNS_8PcpCacheERKSt6vectorINS_9TfWeakPtrINS_13PcpLayerStackEEESaIS7_EERKNSt7__cxx1112basic_stringIcSt11char_traitsIcESaIcEEERKNS5_INS_8SdfLayerEEENS0_19_SublayerChangeTypeEPSH_Pb(ptr noundef nonnull align 8 dereferenceable(240) %0, ptr noundef %1, ptr noundef nonnull align 8 dereferenceable(24) %2, ptr noundef nonnull align 8 dereferenceable(32) %3, ptr noundef nonnull align 8 dereferenceable(16) %4, i32 noundef %5, ptr noundef %6, ptr noundef nonnull %8)
  %9 = getelementptr inbounds nuw i8, ptr %4, i64 8
  %10 = load ptr, ptr %9, align 8
  %.not.i.i.i.i.i = icmp eq ptr %10, null
  br i1 %.not.i.i.i.i.i, label %.critedge, label %_ZNK32pxrInternal_v0_24__pxrReserved__8TfRefPtrINS_10Tf_RemnantEEptEv.exit.i.i.i.i

_ZNK32pxrInternal_v0_24__pxrReserved__8TfRefPtrINS_10Tf_RemnantEEptEv.exit.i.i.i.i: ; preds = %7
  %11 = getelementptr inbounds nuw i8, ptr %10, i64 14
  %12 = load i8, ptr %11, align 2
  %13 = trunc i8 %12 to i1
  %14 = load ptr, ptr %4, align 8
  %15 = icmp ne ptr %14, null
  %.not1.i.not = select i1 %13, i1 %15, i1 false
  br i1 %.not1.i.not, label %16, label %.critedge

16:                                               ; preds = %_ZNK32pxrInternal_v0_24__pxrReserved__8TfRefPtrINS_10Tf_RemnantEEptEv.exit.i.i.i.i
  %17 = load ptr, ptr %2, align 8
  %18 = getelementptr inbounds nuw i8, ptr %2, i64 8
  %19 = load ptr, ptr %18, align 8
  %.not15 = icmp eq ptr %17, %19
  br i1 %.not15, label %.critedge, label %.lr.ph

.lr.ph:                                           ; preds = %16
  %20 = load i8, ptr %8, align 1
  %21 = trunc i8 %20 to i1
  br label %22

22:                                               ; preds = %.lr.ph, %22
  %.sroa.012.016 = phi ptr [ %17, %.lr.ph ], [ %23, %22 ]
  tail call void @_ZN32pxrInternal_v0_24__pxrReserved__10PcpChanges20_DidChangeLayerStackEPKNS_8PcpCacheERKNS_9TfWeakPtrINS_13PcpLayerStackEEEbbb(ptr noundef nonnull align 8 dereferenceable(240) %0, ptr noundef %1, ptr noundef nonnull align 8 dereferenceable(16) %.sroa.012.016, i1 noundef zeroext true, i1 noundef zeroext false, i1 noundef zeroext %21)
  %23 = getelementptr inbounds i8, ptr %.sroa.012.016, i64 16
  %.not = icmp eq ptr %23, %19
  br i1 %.not, label %.critedge, label %22

.critedge:                                        ; preds = %22, %16, %7, %_ZNK32pxrInternal_v0_24__pxrReserved__8TfRefPtrINS_10Tf_RemnantEEptEv.exit.i.i.i.i
  ret void
}